target datalayout = "e-m:e-p270:32:32-p271:32:32-p272:64:64-i64:64-i128:128-f80:128-n8:16:32:64-S128"
target triple = "x86_64-pc-linux-gnu"

%struct.pmix_object_t = type { %union.pthread_mutex_t, ptr, i32, %struct.pmix_tma }
%struct.pmix_tma = type { ptr, ptr, ptr, ptr, ptr, ptr, ptr, ptr }
%union.pthread_mutex_t = type { %struct.__pthread_mutex_s }
%struct.__pthread_mutex_s = type { i32, i32, i32, i32, i32, i16, i16, %struct.__pthread_internal_list }
%struct.__pthread_internal_list = type { ptr, ptr }
%struct.pmix_list_item_t = type { %struct.pmix_object_t, ptr, ptr, i32 }
%struct.pmix_proc = type { [256 x i8], i32 }
%struct.pmix_iof_flags_t = type { i8, i8, i8, i8, i8, i8, i8, ptr, ptr, i8, i8, i8, i8, i8, i8 }
%struct.pmix_byte_object = type { ptr, i64 }
%struct.pmix_iof_residual_t = type { %struct.pmix_list_item_t, %struct.pmix_proc, ptr, %struct.pmix_iof_flags_t, i16, i8, i8, %struct.pmix_byte_object }

; Function Attrs: nounwind uwtable
define internal void @iofresdes(ptr noundef %0) #0 {
  %2 = alloca ptr, align 8
  store ptr %0, ptr %2, align 8, !tbaa !14
  %3 = load ptr, ptr %2, align 8, !tbaa !14
  %4 = getelementptr inbounds nuw %struct.pmix_iof_residual_t, ptr %3, i32 0, i32 7
  %5 = getelementptr inbounds nuw %struct.pmix_byte_object, ptr %4, i32 0, i32 0
  %6 = load ptr, ptr %5, align 8, !tbaa !243
  %7 = icmp ne ptr null, %6
  br i1 %7, label %8, label %13

8:                                                ; preds = %1
  %9 = load ptr, ptr %2, align 8, !tbaa !14
  %10 = getelementptr inbounds nuw %struct.pmix_iof_residual_t, ptr %9, i32 0, i32 7
  %11 = getelementptr inbounds nuw %struct.pmix_byte_object, ptr %10, i32 0, i32 0
  %12 = load ptr, ptr %11, align 8, !tbaa !243
  call void @free(ptr noundef %12) #13
  br label %13

13:                                               ; preds = %8, %1
  ret void
}